; ModuleID = '22/366.c'
source_filename = "22/366.c"
target datalayout = "e-m:e-p270:32:32-p271:32:32-p272:64:64-i64:64-f80:128-n8:16:32:64-S128"
target triple = "x86_64-pc-linux-gnu"

@.str = private unnamed_addr constant [3 x i8] c"No\00", align 1
@.str.1 = private unnamed_addr constant [3 x i8] c"%d\00", align 1

; Function Attrs: noinline nounwind uwtable
define dso_local void @main() #0 {
  %1 = alloca i32, align 4
  %2 = alloca i32, align 4
  %3 = alloca i32, align 4
  %4 = alloca i32, align 4
  %5 = alloca i32, align 4
  %6 = alloca i32, align 4
  %7 = alloca i32, align 4
  %8 = alloca i32, align 4
  %9 = alloca i32, align 4
  %10 = alloca [300 x i32], align 16
  %11 = alloca [1505 x i8], align 16
  %12 = alloca [5 x i8], align 1
  %13 = alloca i8, align 1
  %14 = alloca i8, align 1
  store i32 1, i32* %5, align 4
  %15 = bitcast [300 x i32]* %10 to i8*
  call void @llvm.memset.p0i8.i64(i8* align 16 %15, i8 0, i64 1200, i1 false)
  %16 = getelementptr inbounds [1505 x i8], [1505 x i8]* %11, i64 0, i64 0
  %17 = call i32 (i8*, ...) bitcast (i32 (...)* @gets to i32 (i8*, ...)*)(i8* %16)
  store i32 0, i32* %2, align 4
  store i32 0, i32* %4, align 4
  %18 = getelementptr inbounds [1505 x i8], [1505 x i8]* %11, i64 0, i64 0
  %19 = call i64 @strlen(i8* %18) #4
  %20 = trunc i64 %19 to i32
  store i32 %20, i32* %3, align 4
  store i32 0, i32* %8, align 4
  br label %21

21:                                               ; preds = %61, %0
  %22 = load i32, i32* %8, align 4
  %23 = load i32, i32* %3, align 4
  %24 = icmp sle i32 %22, %23
  br i1 %24, label %25, label %64

25:                                               ; preds = %21
  %26 = load i32, i32* %8, align 4
  %27 = sext i32 %26 to i64
  %28 = getelementptr inbounds [1505 x i8], [1505 x i8]* %11, i64 0, i64 %27
  %29 = load i8, i8* %28, align 1
  %30 = sext i8 %29 to i32
  %31 = icmp eq i32 %30, 44
  br i1 %31, label %39, label %32

32:                                               ; preds = %25
  %33 = load i32, i32* %8, align 4
  %34 = sext i32 %33 to i64
  %35 = getelementptr inbounds [1505 x i8], [1505 x i8]* %11, i64 0, i64 %34
  %36 = load i8, i8* %35, align 1
  %37 = sext i8 %36 to i32
  %38 = icmp eq i32 %37, 0
  br i1 %38, label %39, label %44

39:                                               ; preds = %32, %25
  %40 = load i32, i32* %4, align 4
  %41 = add nsw i32 %40, 1
  store i32 %41, i32* %4, align 4
  %42 = load i32, i32* %2, align 4
  %43 = add nsw i32 %42, 1
  store i32 %43, i32* %2, align 4
  br label %60

44:                                               ; preds = %32
  %45 = load i32, i32* %4, align 4
  %46 = sext i32 %45 to i64
  %47 = getelementptr inbounds [300 x i32], [300 x i32]* %10, i64 0, i64 %46
  %48 = load i32, i32* %47, align 4
  %49 = mul nsw i32 %48, 10
  %50 = load i32, i32* %8, align 4
  %51 = sext i32 %50 to i64
  %52 = getelementptr inbounds [1505 x i8], [1505 x i8]* %11, i64 0, i64 %51
  %53 = load i8, i8* %52, align 1
  %54 = sext i8 %53 to i32
  %55 = add nsw i32 %49, %54
  %56 = sub nsw i32 %55, 48
  %57 = load i32, i32* %4, align 4
  %58 = sext i32 %57 to i64
  %59 = getelementptr inbounds [300 x i32], [300 x i32]* %10, i64 0, i64 %58
  store i32 %56, i32* %59, align 4
  br label %60

60:                                               ; preds = %44, %39
  br label %61

61:                                               ; preds = %60
  %62 = load i32, i32* %8, align 4
  %63 = add nsw i32 %62, 1
  store i32 %63, i32* %8, align 4
  br label %21

64:                                               ; preds = %21
  %65 = load i32, i32* %4, align 4
  %66 = icmp eq i32 %65, 1
  br i1 %66, label %67, label %69

67:                                               ; preds = %64
  %68 = call i32 (i8*, ...) @printf(i8* getelementptr inbounds ([3 x i8], [3 x i8]* @.str, i64 0, i64 0))
  br label %132

69:                                               ; preds = %64
  %70 = getelementptr inbounds [300 x i32], [300 x i32]* %10, i64 0, i64 0
  %71 = load i32, i32* %70, align 16
  store i32 %71, i32* %9, align 4
  store i32 1, i32* %1, align 4
  br label %72

72:                                               ; preds = %91, %69
  %73 = load i32, i32* %1, align 4
  %74 = load i32, i32* %4, align 4
  %75 = icmp slt i32 %73, %74
  br i1 %75, label %76, label %94

76:                                               ; preds = %72
  %77 = load i32, i32* %1, align 4
  %78 = sext i32 %77 to i64
  %79 = getelementptr inbounds [300 x i32], [300 x i32]* %10, i64 0, i64 %78
  %80 = load i32, i32* %79, align 4
  %81 = load i32, i32* %9, align 4
  %82 = icmp sge i32 %80, %81
  br i1 %82, label %83, label %90

83:                                               ; preds = %76
  %84 = load i32, i32* %1, align 4
  %85 = sext i32 %84 to i64
  %86 = getelementptr inbounds [300 x i32], [300 x i32]* %10, i64 0, i64 %85
  %87 = load i32, i32* %86, align 4
  store i32 %87, i32* %9, align 4
  %88 = load i32, i32* %5, align 4
  %89 = add nsw i32 %88, 1
  store i32 %89, i32* %5, align 4
  br label %90

90:                                               ; preds = %83, %76
  br label %91

91:                                               ; preds = %90
  %92 = load i32, i32* %1, align 4
  %93 = add nsw i32 %92, 1
  store i32 %93, i32* %1, align 4
  br label %72

94:                                               ; preds = %72
  %95 = load i32, i32* %5, align 4
  %96 = load i32, i32* %4, align 4
  %97 = icmp eq i32 %95, %96
  br i1 %97, label %98, label %100

98:                                               ; preds = %94
  %99 = call i32 (i8*, ...) @printf(i8* getelementptr inbounds ([3 x i8], [3 x i8]* @.str, i64 0, i64 0))
  br label %131

100:                                              ; preds = %94
  store i32 0, i32* %6, align 4
  store i32 0, i32* %1, align 4
  br label %101

101:                                              ; preds = %125, %100
  %102 = load i32, i32* %1, align 4
  %103 = load i32, i32* %4, align 4
  %104 = icmp slt i32 %102, %103
  br i1 %104, label %105, label %128

105:                                              ; preds = %101
  %106 = load i32, i32* %1, align 4
  %107 = sext i32 %106 to i64
  %108 = getelementptr inbounds [300 x i32], [300 x i32]* %10, i64 0, i64 %107
  %109 = load i32, i32* %108, align 4
  %110 = load i32, i32* %6, align 4
  %111 = icmp sgt i32 %109, %110
  br i1 %111, label %112, label %124

112:                                              ; preds = %105
  %113 = load i32, i32* %1, align 4
  %114 = sext i32 %113 to i64
  %115 = getelementptr inbounds [300 x i32], [300 x i32]* %10, i64 0, i64 %114
  %116 = load i32, i32* %115, align 4
  %117 = load i32, i32* %9, align 4
  %118 = icmp slt i32 %116, %117
  br i1 %118, label %119, label %124

119:                                              ; preds = %112
  %120 = load i32, i32* %1, align 4
  %121 = sext i32 %120 to i64
  %122 = getelementptr inbounds [300 x i32], [300 x i32]* %10, i64 0, i64 %121
  %123 = load i32, i32* %122, align 4
  store i32 %123, i32* %6, align 4
  br label %124

124:                                              ; preds = %119, %112, %105
  br label %125

125:                                              ; preds = %124
  %126 = load i32, i32* %1, align 4
  %127 = add nsw i32 %126, 1
  store i32 %127, i32* %1, align 4
  br label %101

128:                                              ; preds = %101
  %129 = load i32, i32* %6, align 4
  %130 = call i32 (i8*, ...) @printf(i8* getelementptr inbounds ([3 x i8], [3 x i8]* @.str.1, i64 0, i64 0), i32 %129)
  br label %131

131:                                              ; preds = %128, %98
  br label %132

132:                                              ; preds = %131, %67
  ret void
}

; Function Attrs: argmemonly nounwind willreturn
declare void @llvm.memset.p0i8.i64(i8* nocapture writeonly, i8, i64, i1 immarg) #1

declare dso_local i32 @gets(...) #2

; Function Attrs: nounwind readonly
declare dso_local i64 @strlen(i8*) #3

declare dso_local i32 @printf(i8*, ...) #2


!llvm.module.flags = !{!0}
!llvm.ident = !{!1}

!0 = !{i32 1, !"wchar_size", i32 4}
!1 = !{!"clang version 10.0.0-4ubuntu1 "}
